; ModuleID = '60/1579.c'
source_filename = "60/1579.c"
target datalayout = "e-m:e-p270:32:32-p271:32:32-p272:64:64-i64:64-f80:128-n8:16:32:64-S128"
target triple = "x86_64-pc-linux-gnu"

@.str = private unnamed_addr constant [3 x i8] c"%d\00", align 1
@.str.1 = private unnamed_addr constant [7 x i8] c"%d %d\0A\00", align 1
@.str.2 = private unnamed_addr constant [6 x i8] c"empty\00", align 1

; Function Attrs: noinline nounwind uwtable
define dso_local i32 @main() #0 {
  %1 = alloca i32, align 4
  %2 = alloca i32, align 4
  %3 = alloca i32, align 4
  %4 = alloca i32, align 4
  %5 = alloca i32, align 4
  %6 = alloca i32, align 4
  %7 = alloca i32, align 4
  %8 = alloca [100000 x i32], align 16
  store i32 0, i32* %1, align 4
  %9 = call i32 (i8*, ...) @__isoc99_scanf(i8* getelementptr inbounds ([3 x i8], [3 x i8]* @.str, i64 0, i64 0), i32* %2)
  store i32 0, i32* %6, align 4
  %10 = load i32, i32* %2, align 4
  %11 = icmp sgt i32 %10, 4
  br i1 %11, label %12, label %80

12:                                               ; preds = %0
  store i32 3, i32* %4, align 4
  br label %13

13:                                               ; preds = %43, %12
  %14 = load i32, i32* %4, align 4
  %15 = load i32, i32* %2, align 4
  %16 = icmp sle i32 %14, %15
  br i1 %16, label %17, label %46

17:                                               ; preds = %13
  store i32 0, i32* %5, align 4
  store i32 2, i32* %3, align 4
  br label %18

18:                                               ; preds = %29, %17
  %19 = load i32, i32* %3, align 4
  %20 = load i32, i32* %4, align 4
  %21 = icmp slt i32 %19, %20
  br i1 %21, label %22, label %32

22:                                               ; preds = %18
  %23 = load i32, i32* %4, align 4
  %24 = load i32, i32* %3, align 4
  %25 = srem i32 %23, %24
  %26 = icmp eq i32 %25, 0
  br i1 %26, label %27, label %28

27:                                               ; preds = %22
  store i32 1, i32* %5, align 4
  br label %28

28:                                               ; preds = %27, %22
  br label %29

29:                                               ; preds = %28
  %30 = load i32, i32* %3, align 4
  %31 = add nsw i32 %30, 1
  store i32 %31, i32* %3, align 4
  br label %18

32:                                               ; preds = %18
  %33 = load i32, i32* %5, align 4
  %34 = icmp eq i32 %33, 0
  br i1 %34, label %35, label %42

35:                                               ; preds = %32
  %36 = load i32, i32* %4, align 4
  %37 = load i32, i32* %6, align 4
  %38 = sext i32 %37 to i64
  %39 = getelementptr inbounds [100000 x i32], [100000 x i32]* %8, i64 0, i64 %38
  store i32 %36, i32* %39, align 4
  %40 = load i32, i32* %6, align 4
  %41 = add nsw i32 %40, 1
  store i32 %41, i32* %6, align 4
  br label %42

42:                                               ; preds = %35, %32
  br label %43

43:                                               ; preds = %42
  %44 = load i32, i32* %4, align 4
  %45 = add nsw i32 %44, 1
  store i32 %45, i32* %4, align 4
  br label %13

46:                                               ; preds = %13
  store i32 1, i32* %4, align 4
  br label %47

47:                                               ; preds = %76, %46
  %48 = load i32, i32* %4, align 4
  %49 = load i32, i32* %6, align 4
  %50 = icmp slt i32 %48, %49
  br i1 %50, label %51, label %79

51:                                               ; preds = %47
  %52 = load i32, i32* %4, align 4
  %53 = sext i32 %52 to i64
  %54 = getelementptr inbounds [100000 x i32], [100000 x i32]* %8, i64 0, i64 %53
  %55 = load i32, i32* %54, align 4
  %56 = load i32, i32* %4, align 4
  %57 = sub nsw i32 %56, 1
  %58 = sext i32 %57 to i64
  %59 = getelementptr inbounds [100000 x i32], [100000 x i32]* %8, i64 0, i64 %58
  %60 = load i32, i32* %59, align 4
  %61 = sub nsw i32 %55, %60
  store i32 %61, i32* %7, align 4
  %62 = load i32, i32* %7, align 4
  %63 = icmp eq i32 %62, 2
  br i1 %63, label %64, label %75

64:                                               ; preds = %51
  %65 = load i32, i32* %4, align 4
  %66 = sub nsw i32 %65, 1
  %67 = sext i32 %66 to i64
  %68 = getelementptr inbounds [100000 x i32], [100000 x i32]* %8, i64 0, i64 %67
  %69 = load i32, i32* %68, align 4
  %70 = load i32, i32* %4, align 4
  %71 = sext i32 %70 to i64
  %72 = getelementptr inbounds [100000 x i32], [100000 x i32]* %8, i64 0, i64 %71
  %73 = load i32, i32* %72, align 4
  %74 = call i32 (i8*, ...) @printf(i8* getelementptr inbounds ([7 x i8], [7 x i8]* @.str.1, i64 0, i64 0), i32 %69, i32 %73)
  br label %75

75:                                               ; preds = %64, %51
  br label %76

76:                                               ; preds = %75
  %77 = load i32, i32* %4, align 4
  %78 = add nsw i32 %77, 1
  store i32 %78, i32* %4, align 4
  br label %47

79:                                               ; preds = %47
  br label %82

80:                                               ; preds = %0
  %81 = call i32 (i8*, ...) @printf(i8* getelementptr inbounds ([6 x i8], [6 x i8]* @.str.2, i64 0, i64 0))
  br label %82

82:                                               ; preds = %80, %79
  %83 = call i32 @getchar()
  %84 = call i32 @getchar()
  %85 = call i32 @getchar()
  %86 = load i32, i32* %1, align 4
  ret i32 %86
}

declare dso_local i32 @__isoc99_scanf(i8*, ...) #1

declare dso_local i32 @printf(i8*, ...) #1

declare dso_local i32 @getchar() #1


!llvm.module.flags = !{!0}
!llvm.ident = !{!1}

!0 = !{i32 1, !"wchar_size", i32 4}
!1 = !{!"clang version 10.0.0-4ubuntu1 "}
